#include <math.h>
#include <stdio.h>
#include <stdlib.h>
#include <string.h>

main()
{float a,b,c,d,s,p,k,i,j,m,n,g;
 float pi=3.1415926;i=180;
 scanf("%f",&a);scanf("%f",&b); scanf("%f",&c); scanf("%f",&d); scanf("%f",&k);  
 s=(a+b+c+d)/2;
 j=(k/i)*pi;m=j/2;
 p=(cos(m))*(cos(m));
 n=(s-a)*(s-b)*(s-c)*(s-d) - a*b*c*d*p;
 if(n<0) printf("Invalid input");
 else {g=sqrt(n);
      printf("%.4f",g);
      
      }
 
} 
